target datalayout = "e-m:e-p270:32:32-p271:32:32-p272:64:64-i64:64-i128:128-f80:128-n8:16:32:64-S128"
target triple = "x86_64-unknown-linux-gnu"

%"class.url::StdStringCanonOutput" = type { %"class.url::CanonOutputT", ptr }
%"class.url::CanonOutputT" = type { ptr, ptr, i32, i32 }

$_ZN3url12CanonOutputTIcEC2Ev = comdat any

$_ZN3url12CanonOutputTIcED2Ev = comdat any

$_ZN3url12CanonOutputTIcED0Ev = comdat any

$_ZTSN3url12CanonOutputTIcEE = comdat any

$_ZTIN3url12CanonOutputTIcEE = comdat any

$_ZTVN3url12CanonOutputTIcEE = comdat any

@_ZTVN3url20StdStringCanonOutputE = dso_local unnamed_addr constant { [5 x ptr] } { [5 x ptr] [ptr null, ptr @_ZTIN3url20StdStringCanonOutputE, ptr @_ZN3url20StdStringCanonOutputD1Ev, ptr @_ZN3url20StdStringCanonOutputD0Ev, ptr @_ZN3url20StdStringCanonOutput6ResizeEi] }, align 8
@_ZTVN10__cxxabiv120__si_class_type_infoE = external global [0 x ptr]
@_ZTSN3url20StdStringCanonOutputE = dso_local constant [29 x i8] c"N3url20StdStringCanonOutputE\00", align 1
@_ZTVN10__cxxabiv117__class_type_infoE = external global [0 x ptr]
@_ZTSN3url12CanonOutputTIcEE = linkonce_odr dso_local constant [24 x i8] c"N3url12CanonOutputTIcEE\00", comdat, align 1
@_ZTIN3url12CanonOutputTIcEE = linkonce_odr dso_local constant { ptr, ptr } { ptr getelementptr inbounds (ptr, ptr @_ZTVN10__cxxabiv117__class_type_infoE, i64 2), ptr @_ZTSN3url12CanonOutputTIcEE }, comdat, align 8
@_ZTIN3url20StdStringCanonOutputE = dso_local constant { ptr, ptr, ptr } { ptr getelementptr inbounds (ptr, ptr @_ZTVN10__cxxabiv120__si_class_type_infoE, i64 2), ptr @_ZTSN3url20StdStringCanonOutputE, ptr @_ZTIN3url12CanonOutputTIcEE }, align 8
@_ZTVN3url12CanonOutputTIcEE = linkonce_odr dso_local unnamed_addr constant { [5 x ptr] } { [5 x ptr] [ptr null, ptr @_ZTIN3url12CanonOutputTIcEE, ptr @_ZN3url12CanonOutputTIcED2Ev, ptr @_ZN3url12CanonOutputTIcED0Ev, ptr @__cxa_pure_virtual] }, comdat, align 8

@_ZN3url20StdStringCanonOutputC1EPNSt7__cxx1112basic_stringIcSt11char_traitsIcESaIcEEE = dso_local unnamed_addr alias void (ptr, ptr), ptr @_ZN3url20StdStringCanonOutputC2EPNSt7__cxx1112basic_stringIcSt11char_traitsIcESaIcEEE
@_ZN3url20StdStringCanonOutputD1Ev = dso_local unnamed_addr alias void (ptr), ptr @_ZN3url20StdStringCanonOutputD2Ev

; Function Attrs: mustprogress uwtable
define dso_local void @_ZN3url20StdStringCanonOutputC2EPNSt7__cxx1112basic_stringIcSt11char_traitsIcESaIcEEE(ptr noundef nonnull align 8 dereferenceable(32) %this, ptr noundef %str) unnamed_addr #0 align 2 personality ptr @__gxx_personality_v0 {
entry:
  %this.addr = alloca ptr, align 8
  %str.addr = alloca ptr, align 8
  %exn.slot = alloca ptr, align 8
  %ehselector.slot = alloca i32, align 4
  store ptr %this, ptr %this.addr, align 8
  store ptr %str, ptr %str.addr, align 8
  %this1 = load ptr, ptr %this.addr, align 8
  call void @_ZN3url12CanonOutputTIcEC2Ev(ptr noundef nonnull align 8 dereferenceable(24) %this1)
  store ptr getelementptr inbounds ({ [5 x ptr] }, ptr @_ZTVN3url20StdStringCanonOutputE, i32 0, i32 0, i32 2), ptr %this1, align 8
  %str_ = getelementptr inbounds %"class.url::StdStringCanonOutput", ptr %this1, i32 0, i32 1
  %0 = load ptr, ptr %str.addr, align 8
  store ptr %0, ptr %str_, align 8
  %str_2 = getelementptr inbounds %"class.url::StdStringCanonOutput", ptr %this1, i32 0, i32 1
  %1 = load ptr, ptr %str_2, align 8
  %call = call noundef i64 @_ZNKSt7__cxx1112basic_stringIcSt11char_traitsIcESaIcEE4sizeEv(ptr noundef nonnull align 8 dereferenceable(32) %1) #6
  %conv = trunc i64 %call to i32
  %cur_len_ = getelementptr inbounds %"class.url::CanonOutputT", ptr %this1, i32 0, i32 3
  store i32 %conv, ptr %cur_len_, align 4
  %str_3 = getelementptr inbounds %"class.url::StdStringCanonOutput", ptr %this1, i32 0, i32 1
  %2 = load ptr, ptr %str_3, align 8
  %str_4 = getelementptr inbounds %"class.url::StdStringCanonOutput", ptr %this1, i32 0, i32 1
  %3 = load ptr, ptr %str_4, align 8
  %call5 = call noundef i64 @_ZNKSt7__cxx1112basic_stringIcSt11char_traitsIcESaIcEE8capacityEv(ptr noundef nonnull align 8 dereferenceable(32) %3) #6
  invoke void @_ZNSt7__cxx1112basic_stringIcSt11char_traitsIcESaIcEE6resizeEm(ptr noundef nonnull align 8 dereferenceable(32) %2, i64 noundef %call5)
          to label %invoke.cont unwind label %lpad

invoke.cont:                                      ; preds = %entry
  %str_6 = getelementptr inbounds %"class.url::StdStringCanonOutput", ptr %this1, i32 0, i32 1
  %4 = load ptr, ptr %str_6, align 8
  %call7 = call noundef zeroext i1 @_ZNKSt7__cxx1112basic_stringIcSt11char_traitsIcESaIcEE5emptyEv(ptr noundef nonnull align 8 dereferenceable(32) %4) #6
  br i1 %call7, label %cond.true, label %cond.false

cond.true:                                        ; preds = %invoke.cont
  br label %cond.end

cond.false:                                       ; preds = %invoke.cont
  %str_8 = getelementptr inbounds %"class.url::StdStringCanonOutput", ptr %this1, i32 0, i32 1
  %5 = load ptr, ptr %str_8, align 8
  %call10 = invoke noundef nonnull align 1 dereferenceable(1) ptr @_ZNSt7__cxx1112basic_stringIcSt11char_traitsIcESaIcEEixEm(ptr noundef nonnull align 8 dereferenceable(32) %5, i64 noundef 0)
          to label %invoke.cont9 unwind label %lpad

invoke.cont9:                                     ; preds = %cond.false
  br label %cond.end

cond.end:                                         ; preds = %invoke.cont9, %cond.true
  %cond = phi ptr [ null, %cond.true ], [ %call10, %invoke.cont9 ]
  %buffer_ = getelementptr inbounds %"class.url::CanonOutputT", ptr %this1, i32 0, i32 1
  store ptr %cond, ptr %buffer_, align 8
  %str_11 = getelementptr inbounds %"class.url::StdStringCanonOutput", ptr %this1, i32 0, i32 1
  %6 = load ptr, ptr %str_11, align 8
  %call12 = call noundef i64 @_ZNKSt7__cxx1112basic_stringIcSt11char_traitsIcESaIcEE4sizeEv(ptr noundef nonnull align 8 dereferenceable(32) %6) #6
  %conv13 = trunc i64 %call12 to i32
  %buffer_len_ = getelementptr inbounds %"class.url::CanonOutputT", ptr %this1, i32 0, i32 2
  store i32 %conv13, ptr %buffer_len_, align 8
  ret void

lpad:                                             ; preds = %cond.false, %entry
  %7 = landingpad { ptr, i32 }
          cleanup
  %8 = extractvalue { ptr, i32 } %7, 0
  store ptr %8, ptr %exn.slot, align 8
  %9 = extractvalue { ptr, i32 } %7, 1
  store i32 %9, ptr %ehselector.slot, align 4
  call void @_ZN3url12CanonOutputTIcED2Ev(ptr noundef nonnull align 8 dereferenceable(24) %this1) #6
  br label %eh.resume

eh.resume:                                        ; preds = %lpad
  %exn = load ptr, ptr %exn.slot, align 8
  %sel = load i32, ptr %ehselector.slot, align 4
  %lpad.val = insertvalue { ptr, i32 } poison, ptr %exn, 0
  %lpad.val14 = insertvalue { ptr, i32 } %lpad.val, i32 %sel, 1
  resume { ptr, i32 } %lpad.val14
}

; Function Attrs: mustprogress nounwind uwtable
define linkonce_odr dso_local void @_ZN3url12CanonOutputTIcEC2Ev(ptr noundef nonnull align 8 dereferenceable(24) %this) unnamed_addr #1 comdat align 2 {
entry:
  %this.addr = alloca ptr, align 8
  store ptr %this, ptr %this.addr, align 8
  %this1 = load ptr, ptr %this.addr, align 8
  store ptr getelementptr inbounds ({ [5 x ptr] }, ptr @_ZTVN3url12CanonOutputTIcEE, i32 0, i32 0, i32 2), ptr %this1, align 8
  %buffer_ = getelementptr inbounds %"class.url::CanonOutputT", ptr %this1, i32 0, i32 1
  store ptr null, ptr %buffer_, align 8
  %buffer_len_ = getelementptr inbounds %"class.url::CanonOutputT", ptr %this1, i32 0, i32 2
  store i32 0, ptr %buffer_len_, align 8
  %cur_len_ = getelementptr inbounds %"class.url::CanonOutputT", ptr %this1, i32 0, i32 3
  store i32 0, ptr %cur_len_, align 4
  ret void
}

; Function Attrs: nounwind
declare noundef i64 @_ZNKSt7__cxx1112basic_stringIcSt11char_traitsIcESaIcEE4sizeEv(ptr noundef nonnull align 8 dereferenceable(32)) #2

declare void @_ZNSt7__cxx1112basic_stringIcSt11char_traitsIcESaIcEE6resizeEm(ptr noundef nonnull align 8 dereferenceable(32), i64 noundef) #3

; Function Attrs: nounwind
declare noundef i64 @_ZNKSt7__cxx1112basic_stringIcSt11char_traitsIcESaIcEE8capacityEv(ptr noundef nonnull align 8 dereferenceable(32)) #2

declare i32 @__gxx_personality_v0(...)

; Function Attrs: nounwind
declare noundef zeroext i1 @_ZNKSt7__cxx1112basic_stringIcSt11char_traitsIcESaIcEE5emptyEv(ptr noundef nonnull align 8 dereferenceable(32)) #2

declare noundef nonnull align 1 dereferenceable(1) ptr @_ZNSt7__cxx1112basic_stringIcSt11char_traitsIcESaIcEEixEm(ptr noundef nonnull align 8 dereferenceable(32), i64 noundef) #3

; Function Attrs: mustprogress nounwind uwtable
define dso_local void @_ZN3url20StdStringCanonOutputD2Ev(ptr noundef nonnull align 8 dereferenceable(32) %this) unnamed_addr #1 align 2 {
entry:
  %this.addr = alloca ptr, align 8
  store ptr %this, ptr %this.addr, align 8
  %this1 = load ptr, ptr %this.addr, align 8
  call void @_ZN3url12CanonOutputTIcED2Ev(ptr noundef nonnull align 8 dereferenceable(24) %this1) #6
  ret void
}

; Function Attrs: mustprogress nounwind uwtable
define dso_local void @_ZN3url20StdStringCanonOutputD0Ev(ptr noundef nonnull align 8 dereferenceable(32) %this) unnamed_addr #1 align 2 {
entry:
  %this.addr = alloca ptr, align 8
  store ptr %this, ptr %this.addr, align 8
  %this1 = load ptr, ptr %this.addr, align 8
  call void @_ZN3url20StdStringCanonOutputD1Ev(ptr noundef nonnull align 8 dereferenceable(32) %this1) #6
  call void @_ZdlPv(ptr noundef %this1) #7
  ret void
}

; Function Attrs: nobuiltin nounwind
declare void @_ZdlPv(ptr noundef) #4

; Function Attrs: mustprogress uwtable
define dso_local void @_ZN3url20StdStringCanonOutput8CompleteEv(ptr noundef nonnull align 8 dereferenceable(32) %this) #0 align 2 {
entry:
  %this.addr = alloca ptr, align 8
  store ptr %this, ptr %this.addr, align 8
  %this1 = load ptr, ptr %this.addr, align 8
  %str_ = getelementptr inbounds %"class.url::StdStringCanonOutput", ptr %this1, i32 0, i32 1
  %0 = load ptr, ptr %str_, align 8
  %cur_len_ = getelementptr inbounds %"class.url::CanonOutputT", ptr %this1, i32 0, i32 3
  %1 = load i32, ptr %cur_len_, align 4
  %conv = sext i32 %1 to i64
  call void @_ZNSt7__cxx1112basic_stringIcSt11char_traitsIcESaIcEE6resizeEm(ptr noundef nonnull align 8 dereferenceable(32) %0, i64 noundef %conv)
  %cur_len_2 = getelementptr inbounds %"class.url::CanonOutputT", ptr %this1, i32 0, i32 3
  %2 = load i32, ptr %cur_len_2, align 4
  %buffer_len_ = getelementptr inbounds %"class.url::CanonOutputT", ptr %this1, i32 0, i32 2
  store i32 %2, ptr %buffer_len_, align 8
  ret void
}

; Function Attrs: mustprogress uwtable
define dso_local void @_ZN3url20StdStringCanonOutput6ResizeEi(ptr noundef nonnull align 8 dereferenceable(32) %this, i32 noundef %sz) unnamed_addr #0 align 2 {
entry:
  %this.addr = alloca ptr, align 8
  %sz.addr = alloca i32, align 4
  store ptr %this, ptr %this.addr, align 8
  store i32 %sz, ptr %sz.addr, align 4
  %this1 = load ptr, ptr %this.addr, align 8
  %str_ = getelementptr inbounds %"class.url::StdStringCanonOutput", ptr %this1, i32 0, i32 1
  %0 = load ptr, ptr %str_, align 8
  %1 = load i32, ptr %sz.addr, align 4
  %conv = sext i32 %1 to i64
  call void @_ZNSt7__cxx1112basic_stringIcSt11char_traitsIcESaIcEE6resizeEm(ptr noundef nonnull align 8 dereferenceable(32) %0, i64 noundef %conv)
  %str_2 = getelementptr inbounds %"class.url::StdStringCanonOutput", ptr %this1, i32 0, i32 1
  %2 = load ptr, ptr %str_2, align 8
  %call = call noundef zeroext i1 @_ZNKSt7__cxx1112basic_stringIcSt11char_traitsIcESaIcEE5emptyEv(ptr noundef nonnull align 8 dereferenceable(32) %2) #6
  br i1 %call, label %cond.true, label %cond.false

cond.true:                                        ; preds = %entry
  br label %cond.end

cond.false:                                       ; preds = %entry
  %str_3 = getelementptr inbounds %"class.url::StdStringCanonOutput", ptr %this1, i32 0, i32 1
  %3 = load ptr, ptr %str_3, align 8
  %call4 = call noundef nonnull align 1 dereferenceable(1) ptr @_ZNSt7__cxx1112basic_stringIcSt11char_traitsIcESaIcEEixEm(ptr noundef nonnull align 8 dereferenceable(32) %3, i64 noundef 0)
  br label %cond.end

cond.end:                                         ; preds = %cond.false, %cond.true
  %cond = phi ptr [ null, %cond.true ], [ %call4, %cond.false ]
  %buffer_ = getelementptr inbounds %"class.url::CanonOutputT", ptr %this1, i32 0, i32 1
  store ptr %cond, ptr %buffer_, align 8
  %4 = load i32, ptr %sz.addr, align 4
  %buffer_len_ = getelementptr inbounds %"class.url::CanonOutputT", ptr %this1, i32 0, i32 2
  store i32 %4, ptr %buffer_len_, align 8
  ret void
}

; Function Attrs: mustprogress nounwind uwtable
define linkonce_odr dso_local void @_ZN3url12CanonOutputTIcED2Ev(ptr noundef nonnull align 8 dereferenceable(24) %this) unnamed_addr #1 comdat align 2 {
entry:
  %this.addr = alloca ptr, align 8
  store ptr %this, ptr %this.addr, align 8
  ret void
}

; Function Attrs: mustprogress nounwind uwtable
define linkonce_odr dso_local void @_ZN3url12CanonOutputTIcED0Ev(ptr noundef nonnull align 8 dereferenceable(24) %this) unnamed_addr #1 comdat align 2 {
entry:
  %this.addr = alloca ptr, align 8
  store ptr %this, ptr %this.addr, align 8
  call void @llvm.trap() #8
  unreachable
}

declare void @__cxa_pure_virtual() unnamed_addr

; Function Attrs: cold noreturn nounwind memory(inaccessiblemem: write)
declare void @llvm.trap() #5


!llvm.module.flags = !{!0, !1, !2, !3, !4}

!0 = !{i32 1, !"wchar_size", i32 4}
!1 = !{i32 8, !"PIC Level", i32 2}
!2 = !{i32 7, !"PIE Level", i32 2}
!3 = !{i32 7, !"uwtable", i32 2}
!4 = !{i32 7, !"frame-pointer", i32 2}
