; ModuleID = 'bench/libquic/original/url_canon_stdstring.cc.ll'
source_filename = "bench/libquic/original/url_canon_stdstring.cc.ll"
target datalayout = "e-m:e-p270:32:32-p271:32:32-p272:64:64-i64:64-i128:128-f80:128-n8:16:32:64-S128"
target triple = "x86_64-unknown-linux-gnu"

$_ZTSN3url12CanonOutputTIcEE = comdat any

$_ZTIN3url12CanonOutputTIcEE = comdat any

@_ZTVN3url20StdStringCanonOutputE = dso_local unnamed_addr constant { [5 x ptr] } { [5 x ptr] [ptr null, ptr @_ZTIN3url20StdStringCanonOutputE, ptr @_ZN3url20StdStringCanonOutputD2Ev, ptr @_ZN3url20StdStringCanonOutputD0Ev, ptr @_ZN3url20StdStringCanonOutput6ResizeEi] }, align 8
@_ZTVN10__cxxabiv120__si_class_type_infoE = external global [0 x ptr]
@_ZTSN3url20StdStringCanonOutputE = dso_local constant [29 x i8] c"N3url20StdStringCanonOutputE\00", align 1
@_ZTVN10__cxxabiv117__class_type_infoE = external global [0 x ptr]
@_ZTSN3url12CanonOutputTIcEE = linkonce_odr dso_local constant [24 x i8] c"N3url12CanonOutputTIcEE\00", comdat, align 1
@_ZTIN3url12CanonOutputTIcEE = linkonce_odr dso_local constant { ptr, ptr } { ptr getelementptr inbounds (ptr, ptr @_ZTVN10__cxxabiv117__class_type_infoE, i64 2), ptr @_ZTSN3url12CanonOutputTIcEE }, comdat, align 8
@_ZTIN3url20StdStringCanonOutputE = dso_local constant { ptr, ptr, ptr } { ptr getelementptr inbounds (ptr, ptr @_ZTVN10__cxxabiv120__si_class_type_infoE, i64 2), ptr @_ZTSN3url20StdStringCanonOutputE, ptr @_ZTIN3url12CanonOutputTIcEE }, align 8

@_ZN3url20StdStringCanonOutputC1EPNSt7__cxx1112basic_stringIcSt11char_traitsIcESaIcEEE = dso_local unnamed_addr alias void (ptr, ptr), ptr @_ZN3url20StdStringCanonOutputC2EPNSt7__cxx1112basic_stringIcSt11char_traitsIcESaIcEEE
@_ZN3url20StdStringCanonOutputD1Ev = dso_local unnamed_addr alias void (ptr), ptr @_ZN3url20StdStringCanonOutputD2Ev

; Function Attrs: mustprogress uwtable
define dso_local void @_ZN3url20StdStringCanonOutputC2EPNSt7__cxx1112basic_stringIcSt11char_traitsIcESaIcEEE(ptr nocapture noundef nonnull align 8 dereferenceable(32) %this, ptr noundef nonnull %str) unnamed_addr #0 align 2 personality ptr @__gxx_personality_v0 {
entry:
  %buffer_.i = getelementptr inbounds i8, ptr %this, i64 8
  tail call void @llvm.memset.p0.i64(ptr noundef nonnull align 8 dereferenceable(16) %buffer_.i, i8 0, i64 16, i1 false)
  store ptr getelementptr inbounds ({ [5 x ptr] }, ptr @_ZTVN3url20StdStringCanonOutputE, i64 0, i32 0, i64 2), ptr %this, align 8
  %str_ = getelementptr inbounds i8, ptr %this, i64 24
  store ptr %str, ptr %str_, align 8
  %call = tail call noundef i64 @_ZNKSt7__cxx1112basic_stringIcSt11char_traitsIcESaIcEE4sizeEv(ptr noundef nonnull align 8 dereferenceable(32) %str) #7
  %conv = trunc i64 %call to i32
  %cur_len_ = getelementptr inbounds i8, ptr %this, i64 20
  store i32 %conv, ptr %cur_len_, align 4
  %0 = load ptr, ptr %str_, align 8
  %call5 = tail call noundef i64 @_ZNKSt7__cxx1112basic_stringIcSt11char_traitsIcESaIcEE8capacityEv(ptr noundef nonnull align 8 dereferenceable(32) %0) #7
  tail call void @_ZNSt7__cxx1112basic_stringIcSt11char_traitsIcESaIcEE6resizeEm(ptr noundef nonnull align 8 dereferenceable(32) %0, i64 noundef %call5)
  %1 = load ptr, ptr %str_, align 8
  %call7 = tail call noundef zeroext i1 @_ZNKSt7__cxx1112basic_stringIcSt11char_traitsIcESaIcEE5emptyEv(ptr noundef nonnull align 8 dereferenceable(32) %1) #7
  br i1 %call7, label %cond.end, label %cond.false

cond.false:                                       ; preds = %entry
  %2 = load ptr, ptr %str_, align 8
  %call10 = tail call noundef nonnull align 1 dereferenceable(1) ptr @_ZNSt7__cxx1112basic_stringIcSt11char_traitsIcESaIcEEixEm(ptr noundef nonnull align 8 dereferenceable(32) %2, i64 noundef 0)
  br label %cond.end

cond.end:                                         ; preds = %cond.false, %entry
  %cond = phi ptr [ null, %entry ], [ %call10, %cond.false ]
  store ptr %cond, ptr %buffer_.i, align 8
  %3 = load ptr, ptr %str_, align 8
  %call12 = tail call noundef i64 @_ZNKSt7__cxx1112basic_stringIcSt11char_traitsIcESaIcEE4sizeEv(ptr noundef nonnull align 8 dereferenceable(32) %3) #7
  %conv13 = trunc i64 %call12 to i32
  %buffer_len_ = getelementptr inbounds i8, ptr %this, i64 16
  store i32 %conv13, ptr %buffer_len_, align 8
  ret void
}

; Function Attrs: nounwind
declare noundef i64 @_ZNKSt7__cxx1112basic_stringIcSt11char_traitsIcESaIcEE4sizeEv(ptr noundef nonnull align 8 dereferenceable(32)) local_unnamed_addr #1

declare void @_ZNSt7__cxx1112basic_stringIcSt11char_traitsIcESaIcEE6resizeEm(ptr noundef nonnull align 8 dereferenceable(32), i64 noundef) local_unnamed_addr #2

; Function Attrs: nounwind
declare noundef i64 @_ZNKSt7__cxx1112basic_stringIcSt11char_traitsIcESaIcEE8capacityEv(ptr noundef nonnull align 8 dereferenceable(32)) local_unnamed_addr #1

declare i32 @__gxx_personality_v0(...)

; Function Attrs: nounwind
declare noundef zeroext i1 @_ZNKSt7__cxx1112basic_stringIcSt11char_traitsIcESaIcEE5emptyEv(ptr noundef nonnull align 8 dereferenceable(32)) local_unnamed_addr #1

declare noundef nonnull align 1 dereferenceable(1) ptr @_ZNSt7__cxx1112basic_stringIcSt11char_traitsIcESaIcEEixEm(ptr noundef nonnull align 8 dereferenceable(32), i64 noundef) local_unnamed_addr #2

; Function Attrs: mustprogress nofree norecurse nosync nounwind willreturn memory(none) uwtable
define dso_local void @_ZN3url20StdStringCanonOutputD2Ev(ptr nocapture nonnull readnone align 8 %this) unnamed_addr #3 align 2 {
entry:
  ret void
}

; Function Attrs: mustprogress nounwind uwtable
define dso_local void @_ZN3url20StdStringCanonOutputD0Ev(ptr noundef nonnull align 8 dereferenceable(32) %this) unnamed_addr #4 align 2 {
entry:
  tail call void @_ZdlPv(ptr noundef nonnull %this) #8
  ret void
}

; Function Attrs: nobuiltin nounwind
declare void @_ZdlPv(ptr noundef) local_unnamed_addr #5

; Function Attrs: mustprogress uwtable
define dso_local void @_ZN3url20StdStringCanonOutput8CompleteEv(ptr nocapture noundef nonnull align 8 dereferenceable(32) %this) local_unnamed_addr #0 align 2 {
entry:
  %str_ = getelementptr inbounds i8, ptr %this, i64 24
  %0 = load ptr, ptr %str_, align 8
  %cur_len_ = getelementptr inbounds i8, ptr %this, i64 20
  %1 = load i32, ptr %cur_len_, align 4
  %conv = sext i32 %1 to i64
  tail call void @_ZNSt7__cxx1112basic_stringIcSt11char_traitsIcESaIcEE6resizeEm(ptr noundef nonnull align 8 dereferenceable(32) %0, i64 noundef %conv)
  %2 = load i32, ptr %cur_len_, align 4
  %buffer_len_ = getelementptr inbounds i8, ptr %this, i64 16
  store i32 %2, ptr %buffer_len_, align 8
  ret void
}

; Function Attrs: mustprogress uwtable
define dso_local void @_ZN3url20StdStringCanonOutput6ResizeEi(ptr nocapture noundef nonnull align 8 dereferenceable(32) %this, i32 noundef %sz) unnamed_addr #0 align 2 {
entry:
  %str_ = getelementptr inbounds i8, ptr %this, i64 24
  %0 = load ptr, ptr %str_, align 8
  %conv = sext i32 %sz to i64
  tail call void @_ZNSt7__cxx1112basic_stringIcSt11char_traitsIcESaIcEE6resizeEm(ptr noundef nonnull align 8 dereferenceable(32) %0, i64 noundef %conv)
  %1 = load ptr, ptr %str_, align 8
  %call = tail call noundef zeroext i1 @_ZNKSt7__cxx1112basic_stringIcSt11char_traitsIcESaIcEE5emptyEv(ptr noundef nonnull align 8 dereferenceable(32) %1) #7
  br i1 %call, label %cond.end, label %cond.false

cond.false:                                       ; preds = %entry
  %2 = load ptr, ptr %str_, align 8
  %call4 = tail call noundef nonnull align 1 dereferenceable(1) ptr @_ZNSt7__cxx1112basic_stringIcSt11char_traitsIcESaIcEEixEm(ptr noundef nonnull align 8 dereferenceable(32) %2, i64 noundef 0)
  br label %cond.end

cond.end:                                         ; preds = %entry, %cond.false
  %cond = phi ptr [ %call4, %cond.false ], [ null, %entry ]
  %buffer_ = getelementptr inbounds i8, ptr %this, i64 8
  store ptr %cond, ptr %buffer_, align 8
  %buffer_len_ = getelementptr inbounds i8, ptr %this, i64 16
  store i32 %sz, ptr %buffer_len_, align 8
  ret void
}

; Function Attrs: nocallback nofree nounwind willreturn memory(argmem: write)
declare void @llvm.memset.p0.i64(ptr nocapture writeonly, i8, i64, i1 immarg) #6


!llvm.module.flags = !{!0, !1, !2, !3, !4}

!0 = !{i32 1, !"wchar_size", i32 4}
!1 = !{i32 8, !"PIC Level", i32 2}
!2 = !{i32 7, !"PIE Level", i32 2}
!3 = !{i32 7, !"uwtable", i32 2}
!4 = !{i32 7, !"frame-pointer", i32 2}
